target datalayout = "e-m:e-p270:32:32-p271:32:32-p272:64:64-i64:64-i128:128-f80:128-n8:16:32:64-S128"
target triple = "x86_64-pc-linux-gnu"

@PyExc_OSError = external global ptr, align 8

; Function Attrs: nounwind uwtable
define hidden i32 @_Py_get_blocking(i32 noundef %0) #0 {
  %2 = alloca i32, align 4
  %3 = alloca i32, align 4
  %4 = alloca i32, align 4
  %5 = alloca i32, align 4
  store i32 %0, ptr %3, align 4, !tbaa !4
  call void @llvm.lifetime.start.p0(i64 4, ptr %4) #10
  %6 = load i32, ptr %3, align 4, !tbaa !4
  %7 = call i32 (i32, i32, ...) @fcntl64(i32 noundef %6, i32 noundef 3, i32 noundef 0)
  store i32 %7, ptr %4, align 4, !tbaa !4
  %8 = load i32, ptr %4, align 4, !tbaa !4
  %9 = icmp slt i32 %8, 0
  br i1 %9, label %10, label %13

10:                                               ; preds = %1
  %11 = load ptr, ptr @PyExc_OSError, align 8, !tbaa !178
  %12 = call ptr @PyErr_SetFromErrno(ptr noundef %11)
  store i32 -1, ptr %2, align 4
  store i32 1, ptr %5, align 4
  br label %19

13:                                               ; preds = %1
  %14 = load i32, ptr %4, align 4, !tbaa !4
  %15 = and i32 %14, 2048
  %16 = icmp ne i32 %15, 0
  %17 = xor i1 %16, true
  %18 = zext i1 %17 to i32
  store i32 %18, ptr %2, align 4
  store i32 1, ptr %5, align 4
  br label %19

19:                                               ; preds = %13, %10
  call void @llvm.lifetime.end.p0(i64 4, ptr %4) #10
  %20 = load i32, ptr %2, align 4
  ret i32 %20
}