; Function Attrs: nounwind uwtable
define hidden range(i32 -1, 2) i32 @_Py_get_blocking(i32 noundef %0) local_unnamed_addr #0 {
  %2 = tail call i32 (i32, i32, ...) @fcntl64(i32 noundef %0, i32 noundef 3, i32 noundef 0) #17
  %3 = icmp slt i32 %2, 0
  br i1 %3, label %4, label %7

4:                                                ; preds = %1
  %5 = load ptr, ptr @PyExc_OSError, align 8, !tbaa !188
  %6 = tail call ptr @PyErr_SetFromErrno(ptr noundef %5) #17
  br label %10

7:                                                ; preds = %1
  %8 = lshr i32 %2, 11
  %.lobit = and i32 %8, 1
  %9 = xor i32 %.lobit, 1
  br label %10

10:                                               ; preds = %7, %4
  %.0 = phi i32 [ -1, %4 ], [ %9, %7 ]
  ret i32 %.0
}